; Function Attrs: mustprogress nounwind uwtable
define hidden ptr @_ZN11realclosure7manager15get_coefficientERKNS_3numEj(ptr noundef nonnull readonly align 8 captures(none) dereferenceable(8) %0, ptr noundef nonnull readonly align 8 captures(none) dereferenceable(8) %1, i32 noundef %2) local_unnamed_addr #6 align 2 personality ptr @__gxx_personality_v0 {
  %4 = load ptr, ptr %0, align 8, !tbaa !11
  %5 = load ptr, ptr %1, align 8, !tbaa !84
  %6 = getelementptr inbounds nuw i8, ptr %5, i64 4
  %7 = load i8, ptr %6, align 4, !tbaa !61, !range !105, !noundef !106
  %8 = trunc nuw i8 %7 to i1
  br i1 %8, label %_ZN11realclosure7manager3imp15get_coefficientERKNS_3numEj.exit, label %_ZN11realclosure7manager3imp12is_algebraicERKNS_3numE.exit.i

_ZN11realclosure7manager3imp12is_algebraicERKNS_3numE.exit.i: ; preds = %3
  %9 = getelementptr inbounds nuw i8, ptr %5, i64 88
  %10 = load ptr, ptr %9, align 8, !tbaa !108
  %11 = getelementptr inbounds nuw i8, ptr %10, i64 4
  %12 = load i32, ptr %11, align 4
  %13 = and i32 %12, 3
  %14 = icmp eq i32 %13, 2
  br i1 %14, label %15, label %_ZN11realclosure7manager3imp15get_coefficientERKNS_3numEj.exit

15:                                               ; preds = %_ZN11realclosure7manager3imp12is_algebraicERKNS_3numE.exit.i
  %16 = getelementptr inbounds nuw i8, ptr %10, i64 72
  %17 = load ptr, ptr %16, align 8, !tbaa !143
  %18 = icmp eq ptr %17, null
  br i1 %18, label %_ZN11realclosure7manager3imp15get_coefficientERKNS_3numEj.exit, label %_ZNK5arrayIPN11realclosure5valueELb0EE4sizeEv.exit.i

_ZNK5arrayIPN11realclosure5valueELb0EE4sizeEv.exit.i: ; preds = %15
  %19 = getelementptr inbounds i8, ptr %17, i64 -8
  %20 = load i64, ptr %19, align 8, !tbaa !144
  %21 = trunc i64 %20 to i32
  %.not.i = icmp ult i32 %2, %21
  br i1 %.not.i, label %22, label %_ZN11realclosure7manager3imp15get_coefficientERKNS_3numEj.exit

22:                                               ; preds = %_ZNK5arrayIPN11realclosure5valueELb0EE4sizeEv.exit.i
  %23 = zext i32 %2 to i64
  %24 = getelementptr inbounds nuw ptr, ptr %17, i64 %23
  %25 = load ptr, ptr %24, align 8, !tbaa !99
  %.not.i.i = icmp eq ptr %25, null
  br i1 %.not.i.i, label %_ZN11realclosure7manager3imp15get_coefficientERKNS_3numEj.exit, label %26

26:                                               ; preds = %22
  %27 = load i32, ptr %25, align 8, !tbaa !66
  %28 = add i32 %27, 2
  store i32 %28, ptr %25, align 8, !tbaa !66
  invoke void @_ZN11realclosure7manager3imp7dec_refEPNS_5valueE(ptr noundef nonnull align 8 dereferenceable(1497) %4, ptr noundef nonnull %25)
          to label %_ZN11realclosure7manager3imp15get_coefficientERKNS_3numEj.exit unwind label %29

29:                                               ; preds = %26
  %30 = landingpad { ptr, i32 }
          catch ptr null
  %31 = extractvalue { ptr, i32 } %30, 0
  tail call void @__clang_call_terminate(ptr %31) #25
  unreachable

_ZN11realclosure7manager3imp15get_coefficientERKNS_3numEj.exit: ; preds = %26, %22, %3, %_ZN11realclosure7manager3imp12is_algebraicERKNS_3numE.exit.i, %15, %_ZNK5arrayIPN11realclosure5valueELb0EE4sizeEv.exit.i
  %.sroa.0.0.i = phi ptr [ null, %_ZN11realclosure7manager3imp12is_algebraicERKNS_3numE.exit.i ], [ null, %_ZNK5arrayIPN11realclosure5valueELb0EE4sizeEv.exit.i ], [ null, %3 ], [ null, %15 ], [ null, %22 ], [ %25, %26 ]
  ret ptr %.sroa.0.0.i
}